; Function Attrs: mustprogress uwtable
define internal void @_ZN5arrow8internal12_GLOBAL__N_115SerialTaskGroup6FinishEv(ptr dead_on_unwind noalias writable sret(%"class.arrow::Status") align 8 initializes((0, 8)) %0, ptr noundef nonnull align 8 dereferenceable(49) %1) unnamed_addr #0 align 2 personality ptr @__gxx_personality_v0 {
  %3 = getelementptr inbounds nuw i8, ptr %1, i64 48
  %4 = load i8, ptr %3, align 8, !tbaa !20, !range !64, !noundef !65
  %5 = trunc nuw i8 %4 to i1
  br i1 %5, label %7, label %6

6:                                                ; preds = %2
  store i8 1, ptr %3, align 8, !tbaa !20
  br label %7

7:                                                ; preds = %6, %2
  %8 = getelementptr inbounds nuw i8, ptr %1, i64 40
  store ptr null, ptr %0, align 8, !tbaa !17
  tail call void @_ZN5arrow6Status8CopyFromERKS0_(ptr noundef nonnull align 8 dereferenceable(8) %0, ptr noundef nonnull align 8 dereferenceable(8) %8)
  ret void
}